; Function Attrs: mustprogress uwtable
define noundef i64 @_ZNK8QuantLib12NthToDefault10basketSizeEv(ptr nocapture noundef nonnull readonly align 8 dereferenceable(384) %this) local_unnamed_addr #8 align 2 {
entry:
  %basket_ = getelementptr inbounds nuw i8, ptr %this, i64 104
  %0 = load ptr, ptr %basket_, align 8, !tbaa !44
  %cmp.not.i = icmp eq ptr %0, null
  br i1 %cmp.not.i, label %cond.false.i, label %_ZNK5boost10shared_ptrIN8QuantLib6BasketEEptEv.exit, !prof !100

cond.false.i:                                     ; preds = %entry
  tail call void @_ZN5boost16assertion_failedEPKcS1_S1_l(ptr noundef nonnull @.str.19, ptr noundef nonnull @__PRETTY_FUNCTION__._ZNK5boost10shared_ptrIN8QuantLib6BasketEEptEv, ptr noundef nonnull @.str.20, i64 noundef 784)
  %.pre.i = load ptr, ptr %basket_, align 8, !tbaa !44
  br label %_ZNK5boost10shared_ptrIN8QuantLib6BasketEEptEv.exit

_ZNK5boost10shared_ptrIN8QuantLib6BasketEEptEv.exit: ; preds = %entry, %cond.false.i
  %1 = phi ptr [ %0, %entry ], [ %.pre.i, %cond.false.i ]
  %pool_.i = getelementptr inbounds nuw i8, ptr %1, i64 40
  %2 = load ptr, ptr %pool_.i, align 8, !tbaa !101
  %cmp.not.i.i = icmp eq ptr %2, null
  br i1 %cmp.not.i.i, label %cond.false.i.i, label %_ZNK8QuantLib6Basket4sizeEv.exit, !prof !100

cond.false.i.i:                                   ; preds = %_ZNK5boost10shared_ptrIN8QuantLib6BasketEEptEv.exit
  tail call void @_ZN5boost16assertion_failedEPKcS1_S1_l(ptr noundef nonnull @.str.19, ptr noundef nonnull @__PRETTY_FUNCTION__._ZNK5boost10shared_ptrIN8QuantLib4PoolEEptEv, ptr noundef nonnull @.str.20, i64 noundef 784)
  %.pre.i.i = load ptr, ptr %pool_.i, align 8, !tbaa !101
  br label %_ZNK8QuantLib6Basket4sizeEv.exit

_ZNK8QuantLib6Basket4sizeEv.exit:                 ; preds = %_ZNK5boost10shared_ptrIN8QuantLib6BasketEEptEv.exit, %cond.false.i.i
  %3 = phi ptr [ %2, %_ZNK5boost10shared_ptrIN8QuantLib6BasketEEptEv.exit ], [ %.pre.i.i, %cond.false.i.i ]
  %call2.i = tail call noundef i64 @_ZNK8QuantLib4Pool4sizeEv(ptr noundef nonnull align 8 dereferenceable(168) %3)
  ret i64 %call2.i
}